target datalayout = "e-m:e-p270:32:32-p271:32:32-p272:64:64-i64:64-i128:128-f80:128-n8:16:32:64-S128"
target triple = "x86_64-pc-linux-gnu"

%struct.SDL_Surface = type { i32, i32, i32, i32, i32, ptr, i32, ptr, i32, i32, ptr, i32, ptr, i32, ptr, i32, %struct.SDL_Rect, %struct.SDL_BlitMap }
%struct.SDL_Rect = type { i32, i32, i32, i32 }
%struct.SDL_BlitMap = type { i32, ptr, ptr, %struct.SDL_BlitInfo, i32, i32 }
%struct.SDL_BlitInfo = type { ptr, ptr, i32, i32, i32, i32, ptr, ptr, i32, i32, i32, i32, ptr, ptr, ptr, ptr, ptr, ptr, i32, i32, i8, i8, i8, i8 }
%struct.SDL_Palette = type { i32, ptr, i32, i32 }

@SDL_surface_magic = internal global i8 0, align 1
@.str = private unnamed_addr constant [26 x i8] c"Parameter '%s' is invalid\00", align 1
@.str.5 = private unnamed_addr constant [8 x i8] c"surface\00", align 1
@.str.9 = private unnamed_addr constant [79 x i8] c"SDL_SetSurfacePalette() passed a palette that doesn't match the surface format\00", align 1

; Function Attrs: nounwind uwtable
define hidden zeroext i1 @SDL_SetSurfacePalette_REAL(ptr noundef %0, ptr noundef %1) #0 {
  %3 = alloca i1, align 1
  %4 = alloca ptr, align 8
  %5 = alloca ptr, align 8
  store ptr %0, ptr %4, align 8
  store ptr %1, ptr %5, align 8
  %6 = load ptr, ptr %4, align 8
  %7 = call zeroext i1 @SDL_SurfaceValid(ptr noundef %6)
  br i1 %7, label %10, label %8

8:                                                ; preds = %2
  %9 = call zeroext i1 (ptr, ...) @SDL_SetError_REAL(ptr noundef @.str, ptr noundef @.str.5)
  store i1 %9, ptr %3, align 1
  br label %75

10:                                               ; preds = %2
  %11 = load ptr, ptr %5, align 8
  %12 = icmp ne ptr %11, null
  br i1 %12, label %13, label %41

13:                                               ; preds = %10
  %14 = load ptr, ptr %5, align 8
  %15 = getelementptr inbounds nuw %struct.SDL_Palette, ptr %14, i32 0, i32 0
  %16 = load i32, ptr %15, align 8
  %17 = load ptr, ptr %4, align 8
  %18 = getelementptr inbounds nuw %struct.SDL_Surface, ptr %17, i32 0, i32 1
  %19 = load i32, ptr %18, align 4
  %20 = icmp ne i32 %19, 0
  br i1 %20, label %21, label %29

21:                                               ; preds = %13
  %22 = load ptr, ptr %4, align 8
  %23 = getelementptr inbounds nuw %struct.SDL_Surface, ptr %22, i32 0, i32 1
  %24 = load i32, ptr %23, align 4
  %25 = lshr i32 %24, 28
  %26 = and i32 %25, 15
  %27 = icmp ne i32 %26, 1
  br i1 %27, label %28, label %29

28:                                               ; preds = %21
  br label %35

29:                                               ; preds = %21, %13
  %30 = load ptr, ptr %4, align 8
  %31 = getelementptr inbounds nuw %struct.SDL_Surface, ptr %30, i32 0, i32 1
  %32 = load i32, ptr %31, align 4
  %33 = lshr i32 %32, 8
  %34 = and i32 %33, 255
  br label %35

35:                                               ; preds = %29, %28
  %36 = phi i32 [ 0, %28 ], [ %34, %29 ]
  %37 = shl i32 1, %36
  %38 = icmp sgt i32 %16, %37
  br i1 %38, label %39, label %41

39:                                               ; preds = %35
  %40 = call zeroext i1 (ptr, ...) @SDL_SetError_REAL(ptr noundef @.str.9)
  store i1 %40, ptr %3, align 1
  br label %75

41:                                               ; preds = %35, %10
  %42 = load ptr, ptr %5, align 8
  %43 = load ptr, ptr %4, align 8
  %44 = getelementptr inbounds nuw %struct.SDL_Surface, ptr %43, i32 0, i32 12
  %45 = load ptr, ptr %44, align 8
  %46 = icmp ne ptr %42, %45
  br i1 %46, label %47, label %72

47:                                               ; preds = %41
  %48 = load ptr, ptr %4, align 8
  %49 = getelementptr inbounds nuw %struct.SDL_Surface, ptr %48, i32 0, i32 12
  %50 = load ptr, ptr %49, align 8
  %51 = icmp ne ptr %50, null
  br i1 %51, label %52, label %56

52:                                               ; preds = %47
  %53 = load ptr, ptr %4, align 8
  %54 = getelementptr inbounds nuw %struct.SDL_Surface, ptr %53, i32 0, i32 12
  %55 = load ptr, ptr %54, align 8
  call void @SDL_DestroyPalette_REAL(ptr noundef %55)
  br label %56

56:                                               ; preds = %52, %47
  %57 = load ptr, ptr %5, align 8
  %58 = load ptr, ptr %4, align 8
  %59 = getelementptr inbounds nuw %struct.SDL_Surface, ptr %58, i32 0, i32 12
  store ptr %57, ptr %59, align 8
  %60 = load ptr, ptr %4, align 8
  %61 = getelementptr inbounds nuw %struct.SDL_Surface, ptr %60, i32 0, i32 12
  %62 = load ptr, ptr %61, align 8
  %63 = icmp ne ptr %62, null
  br i1 %63, label %64, label %71

64:                                               ; preds = %56
  %65 = load ptr, ptr %4, align 8
  %66 = getelementptr inbounds nuw %struct.SDL_Surface, ptr %65, i32 0, i32 12
  %67 = load ptr, ptr %66, align 8
  %68 = getelementptr inbounds nuw %struct.SDL_Palette, ptr %67, i32 0, i32 3
  %69 = load i32, ptr %68, align 4
  %70 = add nsw i32 %69, 1
  store i32 %70, ptr %68, align 4
  br label %71

71:                                               ; preds = %64, %56
  br label %72

72:                                               ; preds = %71, %41
  %73 = load ptr, ptr %4, align 8
  %74 = getelementptr inbounds nuw %struct.SDL_Surface, ptr %73, i32 0, i32 17
  call void @SDL_InvalidateMap(ptr noundef %74)
  store i1 true, ptr %3, align 1
  br label %75

75:                                               ; preds = %72, %39, %8
  %76 = load i1, ptr %3, align 1
  ret i1 %76
}

; Function Attrs: nounwind uwtable
define hidden void @SDL_UnlockSurface_REAL(ptr noundef %0) #0 {
  %2 = alloca ptr, align 8
  store ptr %0, ptr %2, align 8
  %3 = load ptr, ptr %2, align 8
  %4 = call zeroext i1 @SDL_SurfaceValid(ptr noundef %3)
  br i1 %4, label %6, label %5

5:                                                ; preds = %1
  br label %36

6:                                                ; preds = %1
  %7 = load ptr, ptr %2, align 8
  %8 = getelementptr inbounds nuw %struct.SDL_Surface, ptr %7, i32 0, i32 15
  %9 = load i32, ptr %8, align 8
  %10 = icmp ne i32 %9, 0
  br i1 %10, label %11, label %17

11:                                               ; preds = %6
  %12 = load ptr, ptr %2, align 8
  %13 = getelementptr inbounds nuw %struct.SDL_Surface, ptr %12, i32 0, i32 15
  %14 = load i32, ptr %13, align 8
  %15 = add nsw i32 %14, -1
  store i32 %15, ptr %13, align 8
  %16 = icmp sgt i32 %15, 0
  br i1 %16, label %17, label %18

17:                                               ; preds = %11, %6
  br label %36

18:                                               ; preds = %11
  %19 = load ptr, ptr %2, align 8
  %20 = getelementptr inbounds nuw %struct.SDL_Surface, ptr %19, i32 0, i32 8
  %21 = load i32, ptr %20, align 8
  %22 = and i32 %21, 4
  %23 = icmp ne i32 %22, 0
  br i1 %23, label %24, label %31

24:                                               ; preds = %18
  %25 = load ptr, ptr %2, align 8
  %26 = getelementptr inbounds nuw %struct.SDL_Surface, ptr %25, i32 0, i32 8
  %27 = load i32, ptr %26, align 8
  %28 = and i32 %27, -5
  store i32 %28, ptr %26, align 8
  %29 = load ptr, ptr %2, align 8
  %30 = call zeroext i1 @SDL_RLESurface(ptr noundef %29)
  br label %31

31:                                               ; preds = %24, %18
  %32 = load ptr, ptr %2, align 8
  %33 = getelementptr inbounds nuw %struct.SDL_Surface, ptr %32, i32 0, i32 0
  %34 = load i32, ptr %33, align 8
  %35 = and i32 %34, -5
  store i32 %35, ptr %33, align 8
  br label %36

36:                                               ; preds = %31, %17, %5
  ret void
}

; Function Attrs: nounwind uwtable
define hidden void @SDL_RemoveSurfaceAlternateImages_REAL(ptr noundef %0) #0 {
  %2 = alloca ptr, align 8
  %3 = alloca i32, align 4
  store ptr %0, ptr %2, align 8
  %4 = load ptr, ptr %2, align 8
  %5 = call zeroext i1 @SDL_SurfaceValid(ptr noundef %4)
  br i1 %5, label %7, label %6

6:                                                ; preds = %1
  br label %39

7:                                                ; preds = %1
  %8 = load ptr, ptr %2, align 8
  %9 = getelementptr inbounds nuw %struct.SDL_Surface, ptr %8, i32 0, i32 13
  %10 = load i32, ptr %9, align 8
  %11 = icmp sgt i32 %10, 0
  br i1 %11, label %12, label %39

12:                                               ; preds = %7
  call void @llvm.lifetime.start.p0(i64 4, ptr %3) #8
  store i32 0, ptr %3, align 4
  br label %13

13:                                               ; preds = %28, %12
  %14 = load i32, ptr %3, align 4
  %15 = load ptr, ptr %2, align 8
  %16 = getelementptr inbounds nuw %struct.SDL_Surface, ptr %15, i32 0, i32 13
  %17 = load i32, ptr %16, align 8
  %18 = icmp slt i32 %14, %17
  br i1 %18, label %20, label %19

19:                                               ; preds = %13
  call void @llvm.lifetime.end.p0(i64 4, ptr %3) #8
  br label %31

20:                                               ; preds = %13
  %21 = load ptr, ptr %2, align 8
  %22 = getelementptr inbounds nuw %struct.SDL_Surface, ptr %21, i32 0, i32 14
  %23 = load ptr, ptr %22, align 8
  %24 = load i32, ptr %3, align 4
  %25 = sext i32 %24 to i64
  %26 = getelementptr inbounds ptr, ptr %23, i64 %25
  %27 = load ptr, ptr %26, align 8
  call void @SDL_DestroySurface_REAL(ptr noundef %27)
  br label %28

28:                                               ; preds = %20
  %29 = load i32, ptr %3, align 4
  %30 = add nsw i32 %29, 1
  store i32 %30, ptr %3, align 4
  br label %13, !llvm.loop !9

31:                                               ; preds = %19
  %32 = load ptr, ptr %2, align 8
  %33 = getelementptr inbounds nuw %struct.SDL_Surface, ptr %32, i32 0, i32 14
  %34 = load ptr, ptr %33, align 8
  call void @SDL_free_REAL(ptr noundef %34)
  %35 = load ptr, ptr %2, align 8
  %36 = getelementptr inbounds nuw %struct.SDL_Surface, ptr %35, i32 0, i32 14
  store ptr null, ptr %36, align 8
  %37 = load ptr, ptr %2, align 8
  %38 = getelementptr inbounds nuw %struct.SDL_Surface, ptr %37, i32 0, i32 13
  store i32 0, ptr %38, align 8
  br label %39

39:                                               ; preds = %6, %31, %7
  ret void
}

; Function Attrs: nounwind uwtable
define hidden zeroext i1 @SDL_SurfaceValid(ptr noundef %0) #0 {
  %2 = alloca ptr, align 8
  store ptr %0, ptr %2, align 8
  %3 = load ptr, ptr %2, align 8
  %4 = icmp ne ptr %3, null
  br i1 %4, label %5, label %10

5:                                                ; preds = %1
  %6 = load ptr, ptr %2, align 8
  %7 = getelementptr inbounds nuw %struct.SDL_Surface, ptr %6, i32 0, i32 7
  %8 = load ptr, ptr %7, align 8
  %9 = icmp eq ptr %8, @SDL_surface_magic
  br label %10

10:                                               ; preds = %5, %1
  %11 = phi i1 [ false, %1 ], [ %9, %5 ]
  ret i1 %11
}

; Function Attrs: nounwind uwtable
define hidden void @SDL_DestroySurface_REAL(ptr noundef %0) #0 {
  %2 = alloca ptr, align 8
  store ptr %0, ptr %2, align 8
  %3 = load ptr, ptr %2, align 8
  %4 = call zeroext i1 @SDL_SurfaceValid(ptr noundef %3)
  br i1 %4, label %6, label %5

5:                                                ; preds = %1
  br label %76

6:                                                ; preds = %1
  %7 = load ptr, ptr %2, align 8
  %8 = getelementptr inbounds nuw %struct.SDL_Surface, ptr %7, i32 0, i32 8
  %9 = load i32, ptr %8, align 8
  %10 = and i32 %9, 1
  %11 = icmp ne i32 %10, 0
  br i1 %11, label %12, label %13

12:                                               ; preds = %6
  br label %76

13:                                               ; preds = %6
  %14 = load ptr, ptr %2, align 8
  %15 = getelementptr inbounds nuw %struct.SDL_Surface, ptr %14, i32 0, i32 6
  %16 = load i32, ptr %15, align 8
  %17 = add nsw i32 %16, -1
  store i32 %17, ptr %15, align 8
  %18 = icmp sgt i32 %17, 0
  br i1 %18, label %19, label %20

19:                                               ; preds = %13
  br label %76

20:                                               ; preds = %13
  %21 = load ptr, ptr %2, align 8
  call void @SDL_RemoveSurfaceAlternateImages_REAL(ptr noundef %21)
  %22 = load ptr, ptr %2, align 8
  %23 = getelementptr inbounds nuw %struct.SDL_Surface, ptr %22, i32 0, i32 9
  %24 = load i32, ptr %23, align 4
  call void @SDL_DestroyProperties_REAL(i32 noundef %24)
  %25 = load ptr, ptr %2, align 8
  %26 = getelementptr inbounds nuw %struct.SDL_Surface, ptr %25, i32 0, i32 17
  call void @SDL_InvalidateMap(ptr noundef %26)
  br label %27

27:                                               ; preds = %32, %20
  %28 = load ptr, ptr %2, align 8
  %29 = getelementptr inbounds nuw %struct.SDL_Surface, ptr %28, i32 0, i32 15
  %30 = load i32, ptr %29, align 8
  %31 = icmp sgt i32 %30, 0
  br i1 %31, label %32, label %34

32:                                               ; preds = %27
  %33 = load ptr, ptr %2, align 8
  call void @SDL_UnlockSurface_REAL(ptr noundef %33)
  br label %27, !llvm.loop !5

34:                                               ; preds = %27
  %35 = load ptr, ptr %2, align 8
  %36 = getelementptr inbounds nuw %struct.SDL_Surface, ptr %35, i32 0, i32 8
  %37 = load i32, ptr %36, align 8
  %38 = and i32 %37, 4
  %39 = icmp ne i32 %38, 0
  br i1 %39, label %40, label %42

40:                                               ; preds = %34
  %41 = load ptr, ptr %2, align 8
  call void @SDL_UnRLESurface(ptr noundef %41, i1 noundef zeroext false)
  br label %42

42:                                               ; preds = %40, %34
  %43 = load ptr, ptr %2, align 8
  %44 = call zeroext i1 @SDL_SetSurfacePalette_REAL(ptr noundef %43, ptr noundef null)
  %45 = load ptr, ptr %2, align 8
  %46 = getelementptr inbounds nuw %struct.SDL_Surface, ptr %45, i32 0, i32 0
  %47 = load i32, ptr %46, align 8
  %48 = and i32 %47, 1
  %49 = icmp ne i32 %48, 0
  br i1 %49, label %50, label %51

50:                                               ; preds = %42
  br label %66

51:                                               ; preds = %42
  %52 = load ptr, ptr %2, align 8
  %53 = getelementptr inbounds nuw %struct.SDL_Surface, ptr %52, i32 0, i32 0
  %54 = load i32, ptr %53, align 8
  %55 = and i32 %54, 8
  %56 = icmp ne i32 %55, 0
  br i1 %56, label %57, label %61

57:                                               ; preds = %51
  %58 = load ptr, ptr %2, align 8
  %59 = getelementptr inbounds nuw %struct.SDL_Surface, ptr %58, i32 0, i32 5
  %60 = load ptr, ptr %59, align 8
  call void @SDL_aligned_free_REAL(ptr noundef %60)
  br label %65

61:                                               ; preds = %51
  %62 = load ptr, ptr %2, align 8
  %63 = getelementptr inbounds nuw %struct.SDL_Surface, ptr %62, i32 0, i32 5
  %64 = load ptr, ptr %63, align 8
  call void @SDL_free_REAL(ptr noundef %64)
  br label %65

65:                                               ; preds = %61, %57
  br label %66

66:                                               ; preds = %65, %50
  %67 = load ptr, ptr %2, align 8
  %68 = getelementptr inbounds nuw %struct.SDL_Surface, ptr %67, i32 0, i32 7
  store ptr null, ptr %68, align 8
  %69 = load ptr, ptr %2, align 8
  %70 = getelementptr inbounds nuw %struct.SDL_Surface, ptr %69, i32 0, i32 8
  %71 = load i32, ptr %70, align 8
  %72 = and i32 %71, 2
  %73 = icmp ne i32 %72, 0
  br i1 %73, label %76, label %74

74:                                               ; preds = %66
  %75 = load ptr, ptr %2, align 8
  call void @SDL_free_REAL(ptr noundef %75)
  br label %76

76:                                               ; preds = %5, %12, %19, %74, %66
  ret void
}