; Function Attrs: nounwind uwtable
define hidden void @SDL_DestroySurface_REAL(ptr noundef %0) local_unnamed_addr #2 {
  %.not.i = icmp eq ptr %0, null
  br i1 %.not.i, label %SDL_SurfaceValid.exit.thread, label %SDL_SurfaceValid.exit

SDL_SurfaceValid.exit:                            ; preds = %1
  %2 = getelementptr inbounds nuw i8, ptr %0, i64 40
  %3 = load ptr, ptr %2, align 8
  %4 = icmp eq ptr %3, @SDL_surface_magic
  br i1 %4, label %5, label %SDL_SurfaceValid.exit.thread

5:                                                ; preds = %SDL_SurfaceValid.exit
  %6 = getelementptr inbounds nuw i8, ptr %0, i64 48
  %7 = load i32, ptr %6, align 8
  %8 = and i32 %7, 1
  %.not = icmp eq i32 %8, 0
  br i1 %.not, label %9, label %SDL_SurfaceValid.exit.thread

9:                                                ; preds = %5
  %10 = getelementptr inbounds nuw i8, ptr %0, i64 32
  %11 = load i32, ptr %10, align 8
  %12 = add nsw i32 %11, -1
  store i32 %12, ptr %10, align 8
  %13 = icmp sgt i32 %11, 1
  br i1 %13, label %SDL_SurfaceValid.exit.thread, label %SDL_SurfaceValid.exit27

SDL_SurfaceValid.exit27:                          ; preds = %9
  %14 = getelementptr inbounds nuw i8, ptr %0, i64 80
  %15 = load i32, ptr %14, align 8
  %16 = icmp sgt i32 %15, 0
  br i1 %16, label %.lr.ph, label %SDL_RemoveSurfaceAlternateImages_REAL.exit

.lr.ph:                                           ; preds = %SDL_SurfaceValid.exit27
  %17 = getelementptr inbounds nuw i8, ptr %0, i64 88
  br label %20

._crit_edge:                                      ; preds = %20
  %18 = getelementptr inbounds nuw i8, ptr %0, i64 88
  %19 = load ptr, ptr %18, align 8
  tail call void @SDL_free_REAL(ptr noundef %19) #10
  store ptr null, ptr %18, align 8
  store i32 0, ptr %14, align 8
  br label %SDL_RemoveSurfaceAlternateImages_REAL.exit

20:                                               ; preds = %.lr.ph, %20
  %indvars.iv = phi i64 [ 0, %.lr.ph ], [ %indvars.iv.next, %20 ]
  %21 = load ptr, ptr %17, align 8
  %22 = getelementptr inbounds nuw ptr, ptr %21, i64 %indvars.iv
  %23 = load ptr, ptr %22, align 8
  tail call void @SDL_DestroySurface_REAL(ptr noundef %23)
  %indvars.iv.next = add nuw nsw i64 %indvars.iv, 1
  %24 = load i32, ptr %14, align 8
  %25 = sext i32 %24 to i64
  %26 = icmp slt i64 %indvars.iv.next, %25
  br i1 %26, label %20, label %._crit_edge, !llvm.loop !3

SDL_RemoveSurfaceAlternateImages_REAL.exit:       ; preds = %SDL_SurfaceValid.exit27, %._crit_edge
  %27 = getelementptr inbounds nuw i8, ptr %0, i64 52
  %28 = load i32, ptr %27, align 4
  tail call void @SDL_DestroyProperties_REAL(i32 noundef %28) #10
  %29 = getelementptr inbounds nuw i8, ptr %0, i64 120
  tail call void @SDL_InvalidateMap(ptr noundef nonnull %29) #10
  %30 = getelementptr inbounds nuw i8, ptr %0, i64 96
  %31 = load i32, ptr %30, align 8
  %32 = icmp sgt i32 %31, 0
  br i1 %32, label %SDL_SurfaceValid.exit.i.lr.ph, label %._crit_edge30

SDL_SurfaceValid.exit.i.lr.ph:                    ; preds = %SDL_RemoveSurfaceAlternateImages_REAL.exit
  %33 = load ptr, ptr %2, align 8
  %34 = icmp eq ptr %33, @SDL_surface_magic
  br i1 %34, label %SDL_SurfaceValid.exit.i, label %SDL_SurfaceValid.exit.i.us

SDL_SurfaceValid.exit.i.us:                       ; preds = %SDL_SurfaceValid.exit.i.lr.ph, %SDL_SurfaceValid.exit.i.us
  br label %SDL_SurfaceValid.exit.i.us

SDL_SurfaceValid.exit.ithread-pre-split:          ; preds = %39, %SDL_SurfaceValid.exit.i, %SDL_UnlockSurface_REAL.exit
  %35 = phi i32 [ %.pre.pre, %SDL_UnlockSurface_REAL.exit ], [ %40, %39 ], [ %37, %SDL_SurfaceValid.exit.i ]
  %.pr = load ptr, ptr %2, align 8
  br label %SDL_SurfaceValid.exit.i

SDL_SurfaceValid.exit.i:                          ; preds = %SDL_SurfaceValid.exit.i.lr.ph, %SDL_SurfaceValid.exit.ithread-pre-split
  %36 = phi ptr [ %.pr, %SDL_SurfaceValid.exit.ithread-pre-split ], [ @SDL_surface_magic, %SDL_SurfaceValid.exit.i.lr.ph ]
  %37 = phi i32 [ %35, %SDL_SurfaceValid.exit.ithread-pre-split ], [ %31, %SDL_SurfaceValid.exit.i.lr.ph ]
  %38 = icmp eq ptr %36, @SDL_surface_magic
  br i1 %38, label %39, label %SDL_SurfaceValid.exit.ithread-pre-split

39:                                               ; preds = %SDL_SurfaceValid.exit.i
  %40 = add nsw i32 %37, -1
  store i32 %40, ptr %30, align 8
  %.not28 = icmp eq i32 %37, 1
  br i1 %.not28, label %41, label %SDL_SurfaceValid.exit.ithread-pre-split

41:                                               ; preds = %39
  %42 = load i32, ptr %6, align 8
  %43 = and i32 %42, 4
  %.not7.i = icmp eq i32 %43, 0
  br i1 %.not7.i, label %SDL_UnlockSurface_REAL.exit.thread33, label %SDL_UnlockSurface_REAL.exit

SDL_UnlockSurface_REAL.exit.thread33:             ; preds = %41
  %44 = load i32, ptr %0, align 8
  %45 = and i32 %44, -5
  store i32 %45, ptr %0, align 8
  br label %._crit_edge30

SDL_UnlockSurface_REAL.exit:                      ; preds = %41
  %46 = and i32 %42, -5
  store i32 %46, ptr %6, align 8
  %47 = tail call zeroext i1 @SDL_RLESurface(ptr noundef nonnull %0) #10
  %.pre.pre = load i32, ptr %30, align 8
  %48 = load i32, ptr %0, align 8
  %49 = and i32 %48, -5
  store i32 %49, ptr %0, align 8
  %50 = icmp sgt i32 %.pre.pre, 0
  br i1 %50, label %SDL_SurfaceValid.exit.ithread-pre-split, label %._crit_edge30, !llvm.loop !5

._crit_edge30:                                    ; preds = %SDL_UnlockSurface_REAL.exit, %SDL_UnlockSurface_REAL.exit.thread33, %SDL_RemoveSurfaceAlternateImages_REAL.exit
  %51 = load i32, ptr %6, align 8
  %52 = and i32 %51, 4
  %.not18 = icmp eq i32 %52, 0
  br i1 %.not18, label %SDL_SurfaceValid.exit.i24, label %53

53:                                               ; preds = %._crit_edge30
  tail call void @SDL_UnRLESurface(ptr noundef nonnull %0, i1 noundef zeroext false) #10
  br label %SDL_SurfaceValid.exit.i24

SDL_SurfaceValid.exit.i24:                        ; preds = %._crit_edge30, %53
  %54 = load ptr, ptr %2, align 8
  %55 = icmp eq ptr %54, @SDL_surface_magic
  br i1 %55, label %57, label %SDL_SurfaceValid.exit.thread.i

SDL_SurfaceValid.exit.thread.i:                   ; preds = %SDL_SurfaceValid.exit.i24
  %56 = tail call zeroext i1 (ptr, ...) @SDL_SetError_REAL(ptr noundef nonnull @.str, ptr noundef nonnull @.str.5) #10
  br label %SDL_SetSurfacePalette_REAL.exit

57:                                               ; preds = %SDL_SurfaceValid.exit.i24
  %58 = getelementptr inbounds nuw i8, ptr %0, i64 72
  %59 = load ptr, ptr %58, align 8
  %.not21.i = icmp eq ptr %59, null
  br i1 %.not21.i, label %61, label %60

60:                                               ; preds = %57
  tail call void @SDL_DestroyPalette_REAL(ptr noundef nonnull %59) #10
  store ptr null, ptr %58, align 8
  br label %61

61:                                               ; preds = %60, %57
  tail call void @SDL_InvalidateMap(ptr noundef nonnull %29) #10
  br label %SDL_SetSurfacePalette_REAL.exit

SDL_SetSurfacePalette_REAL.exit:                  ; preds = %SDL_SurfaceValid.exit.thread.i, %61
  %62 = load i32, ptr %0, align 8
  %63 = and i32 %62, 1
  %.not19 = icmp eq i32 %63, 0
  br i1 %.not19, label %64, label %70

64:                                               ; preds = %SDL_SetSurfacePalette_REAL.exit
  %65 = and i32 %62, 8
  %.not20 = icmp eq i32 %65, 0
  %66 = getelementptr inbounds nuw i8, ptr %0, i64 24
  %67 = load ptr, ptr %66, align 8
  br i1 %.not20, label %69, label %68

68:                                               ; preds = %64
  tail call void @SDL_aligned_free_REAL(ptr noundef %67) #10
  br label %70

69:                                               ; preds = %64
  tail call void @SDL_free_REAL(ptr noundef %67) #10
  br label %70

70:                                               ; preds = %68, %69, %SDL_SetSurfacePalette_REAL.exit
  store ptr null, ptr %2, align 8
  %71 = load i32, ptr %6, align 8
  %72 = and i32 %71, 2
  %.not21 = icmp eq i32 %72, 0
  br i1 %.not21, label %73, label %SDL_SurfaceValid.exit.thread

73:                                               ; preds = %70
  tail call void @SDL_free_REAL(ptr noundef nonnull %0) #10
  br label %SDL_SurfaceValid.exit.thread

SDL_SurfaceValid.exit.thread:                     ; preds = %1, %9, %5, %SDL_SurfaceValid.exit, %73, %70
  ret void
}